; Function Attrs: mustprogress uwtable
define noundef zeroext i1 @_ZN32pxrInternal_v0_24__pxrReserved__8JsWriter10WriteValueEd(ptr noundef nonnull readonly align 8 captures(none) dereferenceable(8) %0, double noundef %1) local_unnamed_addr #3 align 2 {
  %3 = load ptr, ptr %0, align 8
  %.val = load ptr, ptr %3, align 8
  %4 = load ptr, ptr %.val, align 8
  %5 = getelementptr inbounds nuw i8, ptr %4, i64 64
  %6 = load ptr, ptr %5, align 8
  %7 = tail call noundef zeroext i1 %6(ptr noundef nonnull align 8 dereferenceable(8) %.val, double noundef %1)
  ret i1 %7
}